target datalayout = "e-m:e-p270:32:32-p271:32:32-p272:64:64-i64:64-i128:128-f80:128-n8:16:32:64-S128"
target triple = "x86_64-unknown-linux-gnu"

%"struct.OpenColorIO_v2_4dev::CDLOpData::ChannelParams" = type { [3 x double] }
%"class.std::__cxx11::basic_string" = type { %"struct.std::__cxx11::basic_string<char>::_Alloc_hider", i64, %union.anon.0 }
%"struct.std::__cxx11::basic_string<char>::_Alloc_hider" = type { ptr }
%union.anon.0 = type { i64, [8 x i8] }
%"class.OpenColorIO_v2_4dev::CDLOpData" = type { %"class.OpenColorIO_v2_4dev::OpData", i32, %"struct.OpenColorIO_v2_4dev::CDLOpData::ChannelParams", %"struct.OpenColorIO_v2_4dev::CDLOpData::ChannelParams", %"struct.OpenColorIO_v2_4dev::CDLOpData::ChannelParams", double }
%"class.OpenColorIO_v2_4dev::OpData" = type { ptr, %"class.std::mutex", %"class.OpenColorIO_v2_4dev::FormatMetadataImpl" }
%"class.std::mutex" = type { %"class.std::__mutex_base" }
%"class.std::__mutex_base" = type { %union.pthread_mutex_t }
%union.pthread_mutex_t = type { %struct.__pthread_mutex_s }
%struct.__pthread_mutex_s = type { i32, i32, i32, i32, i32, i16, i16, %struct.__pthread_internal_list }
%struct.__pthread_internal_list = type { ptr, ptr }
%"class.OpenColorIO_v2_4dev::FormatMetadataImpl" = type { %"class.OpenColorIO_v2_4dev::FormatMetadata", %"class.std::__cxx11::basic_string", %"class.std::__cxx11::basic_string", %"class.std::vector", %"class.std::vector.4" }
%"class.OpenColorIO_v2_4dev::FormatMetadata" = type { ptr }
%"class.std::vector" = type { %"struct.std::_Vector_base" }
%"struct.std::_Vector_base" = type { %"struct.std::_Vector_base<std::pair<std::__cxx11::basic_string<char>, std::__cxx11::basic_string<char>>, std::allocator<std::pair<std::__cxx11::basic_string<char>, std::__cxx11::basic_string<char>>>>::_Vector_impl" }
%"struct.std::_Vector_base<std::pair<std::__cxx11::basic_string<char>, std::__cxx11::basic_string<char>>, std::allocator<std::pair<std::__cxx11::basic_string<char>, std::__cxx11::basic_string<char>>>>::_Vector_impl" = type { %"struct.std::_Vector_base<std::pair<std::__cxx11::basic_string<char>, std::__cxx11::basic_string<char>>, std::allocator<std::pair<std::__cxx11::basic_string<char>, std::__cxx11::basic_string<char>>>>::_Vector_impl_data" }
%"struct.std::_Vector_base<std::pair<std::__cxx11::basic_string<char>, std::__cxx11::basic_string<char>>, std::allocator<std::pair<std::__cxx11::basic_string<char>, std::__cxx11::basic_string<char>>>>::_Vector_impl_data" = type { ptr, ptr, ptr }
%"class.std::vector.4" = type { %"struct.std::_Vector_base.5" }
%"struct.std::_Vector_base.5" = type { %"struct.std::_Vector_base<OpenColorIO_v2_4dev::FormatMetadataImpl, std::allocator<OpenColorIO_v2_4dev::FormatMetadataImpl>>::_Vector_impl" }
%"struct.std::_Vector_base<OpenColorIO_v2_4dev::FormatMetadataImpl, std::allocator<OpenColorIO_v2_4dev::FormatMetadataImpl>>::_Vector_impl" = type { %"struct.std::_Vector_base<OpenColorIO_v2_4dev::FormatMetadataImpl, std::allocator<OpenColorIO_v2_4dev::FormatMetadataImpl>>::_Vector_impl_data" }
%"struct.std::_Vector_base<OpenColorIO_v2_4dev::FormatMetadataImpl, std::allocator<OpenColorIO_v2_4dev::FormatMetadataImpl>>::_Vector_impl_data" = type { ptr, ptr, ptr }

@_ZTIN19OpenColorIO_v2_4dev9ExceptionE = external constant ptr
@.str.10 = private unnamed_addr constant [6 x i8] c"slope\00", align 1
@.str.11 = private unnamed_addr constant [6 x i8] c"power\00", align 1
@.str.12 = private unnamed_addr constant [11 x i8] c"saturation\00", align 1
@.str.15 = private unnamed_addr constant [22 x i8] c"Index is out of range\00", align 1

; Function Attrs: mustprogress uwtable
define linkonce_odr hidden noundef double @_ZNK19OpenColorIO_v2_4dev9CDLOpData13ChannelParamsixEj(ptr noundef nonnull align 8 dereferenceable(24) %this, i32 noundef %index) #4 comdat align 2 personality ptr @__gxx_personality_v0 {
entry:
  %this.addr = alloca ptr, align 8
  %index.addr = alloca i32, align 4
  %exn.slot = alloca ptr, align 8
  %ehselector.slot = alloca i32, align 4
  store ptr %this, ptr %this.addr, align 8
  store i32 %index, ptr %index.addr, align 4
  %this1 = load ptr, ptr %this.addr, align 8
  %0 = load i32, ptr %index.addr, align 4
  %cmp = icmp uge i32 %0, 3
  br i1 %cmp, label %if.then, label %if.end

if.then:                                          ; preds = %entry
  %exception = call ptr @__cxa_allocate_exception(i64 16) #3
  invoke void @_ZN19OpenColorIO_v2_4dev9ExceptionC1EPKc(ptr noundef nonnull align 8 dereferenceable(16) %exception, ptr noundef @.str.15)
          to label %invoke.cont unwind label %lpad

invoke.cont:                                      ; preds = %if.then
  call void @__cxa_throw(ptr %exception, ptr @_ZTIN19OpenColorIO_v2_4dev9ExceptionE, ptr @_ZN19OpenColorIO_v2_4dev9ExceptionD1Ev) #13
  unreachable

lpad:                                             ; preds = %if.then
  %1 = landingpad { ptr, i32 }
          cleanup
  %2 = extractvalue { ptr, i32 } %1, 0
  store ptr %2, ptr %exn.slot, align 8
  %3 = extractvalue { ptr, i32 } %1, 1
  store i32 %3, ptr %ehselector.slot, align 4
  call void @__cxa_free_exception(ptr %exception) #3
  br label %eh.resume

if.end:                                           ; preds = %entry
  %m_data = getelementptr inbounds %"struct.OpenColorIO_v2_4dev::CDLOpData::ChannelParams", ptr %this1, i32 0, i32 0
  %4 = load i32, ptr %index.addr, align 4
  %idxprom = zext i32 %4 to i64
  %arrayidx = getelementptr inbounds [3 x double], ptr %m_data, i64 0, i64 %idxprom
  %5 = load double, ptr %arrayidx, align 8
  ret double %5

eh.resume:                                        ; preds = %lpad
  %exn = load ptr, ptr %exn.slot, align 8
  %sel = load i32, ptr %ehselector.slot, align 4
  %lpad.val = insertvalue { ptr, i32 } poison, ptr %exn, 0
  %lpad.val2 = insertvalue { ptr, i32 } %lpad.val, i32 %sel, 1
  resume { ptr, i32 } %lpad.val2
}

; Function Attrs: mustprogress uwtable
define linkonce_odr hidden void @_ZN19OpenColorIO_v2_4dev21validateChannelParamsIXadL_ZNS_19validateGreaterThanEPKcddEEEEvS2_RKNS_9CDLOpData13ChannelParamsEd(ptr noundef %name, ptr noundef nonnull align 8 dereferenceable(24) %params, double noundef %threshold) #4 comdat {
entry:
  %name.addr = alloca ptr, align 8
  %params.addr = alloca ptr, align 8
  %threshold.addr = alloca double, align 8
  %i = alloca i32, align 4
  store ptr %name, ptr %name.addr, align 8
  store ptr %params, ptr %params.addr, align 8
  store double %threshold, ptr %threshold.addr, align 8
  store i32 0, ptr %i, align 4
  br label %for.cond

for.cond:                                         ; preds = %for.inc, %entry
  %0 = load i32, ptr %i, align 4
  %cmp = icmp ult i32 %0, 3
  br i1 %cmp, label %for.body, label %for.end

for.body:                                         ; preds = %for.cond
  %1 = load ptr, ptr %name.addr, align 8
  %2 = load ptr, ptr %params.addr, align 8
  %3 = load i32, ptr %i, align 4
  %call = call noundef double @_ZNK19OpenColorIO_v2_4dev9CDLOpData13ChannelParamsixEj(ptr noundef nonnull align 8 dereferenceable(24) %2, i32 noundef %3)
  %4 = load double, ptr %threshold.addr, align 8
  call void @_ZN19OpenColorIO_v2_4dev19validateGreaterThanEPKcdd(ptr noundef %1, double noundef %call, double noundef %4)
  br label %for.inc

for.inc:                                          ; preds = %for.body
  %5 = load i32, ptr %i, align 4
  %inc = add i32 %5, 1
  store i32 %inc, ptr %i, align 4
  br label %for.cond, !llvm.loop !6

for.end:                                          ; preds = %for.cond
  ret void
}

; Function Attrs: mustprogress uwtable
define linkonce_odr hidden void @_ZN19OpenColorIO_v2_4dev21validateChannelParamsIXadL_ZNS_20validateGreaterEqualEPKcddEEEEvS2_RKNS_9CDLOpData13ChannelParamsEd(ptr noundef %name, ptr noundef nonnull align 8 dereferenceable(24) %params, double noundef %threshold) #4 comdat {
entry:
  %name.addr = alloca ptr, align 8
  %params.addr = alloca ptr, align 8
  %threshold.addr = alloca double, align 8
  %i = alloca i32, align 4
  store ptr %name, ptr %name.addr, align 8
  store ptr %params, ptr %params.addr, align 8
  store double %threshold, ptr %threshold.addr, align 8
  store i32 0, ptr %i, align 4
  br label %for.cond

for.cond:                                         ; preds = %for.inc, %entry
  %0 = load i32, ptr %i, align 4
  %cmp = icmp ult i32 %0, 3
  br i1 %cmp, label %for.body, label %for.end

for.body:                                         ; preds = %for.cond
  %1 = load ptr, ptr %name.addr, align 8
  %2 = load ptr, ptr %params.addr, align 8
  %3 = load i32, ptr %i, align 4
  %call = call noundef double @_ZNK19OpenColorIO_v2_4dev9CDLOpData13ChannelParamsixEj(ptr noundef nonnull align 8 dereferenceable(24) %2, i32 noundef %3)
  %4 = load double, ptr %threshold.addr, align 8
  call void @_ZN19OpenColorIO_v2_4dev20validateGreaterEqualEPKcdd(ptr noundef %1, double noundef %call, double noundef %4)
  br label %for.inc

for.inc:                                          ; preds = %for.body
  %5 = load i32, ptr %i, align 4
  %inc = add i32 %5, 1
  store i32 %inc, ptr %i, align 4
  br label %for.cond, !llvm.loop !4

for.end:                                          ; preds = %for.cond
  ret void
}

; Function Attrs: mustprogress uwtable
define hidden void @_ZN19OpenColorIO_v2_4dev14validateParamsERKNS_9CDLOpData13ChannelParamsES3_d(ptr noundef nonnull align 8 dereferenceable(24) %slopeParams, ptr noundef nonnull align 8 dereferenceable(24) %powerParams, double noundef %saturation) #4 {
entry:
  %slopeParams.addr = alloca ptr, align 8
  %powerParams.addr = alloca ptr, align 8
  %saturation.addr = alloca double, align 8
  store ptr %slopeParams, ptr %slopeParams.addr, align 8
  store ptr %powerParams, ptr %powerParams.addr, align 8
  store double %saturation, ptr %saturation.addr, align 8
  %0 = load ptr, ptr %slopeParams.addr, align 8
  call void @_ZN19OpenColorIO_v2_4dev21validateChannelParamsIXadL_ZNS_20validateGreaterEqualEPKcddEEEEvS2_RKNS_9CDLOpData13ChannelParamsEd(ptr noundef @.str.10, ptr noundef nonnull align 8 dereferenceable(24) %0, double noundef 0.000000e+00)
  %1 = load ptr, ptr %powerParams.addr, align 8
  call void @_ZN19OpenColorIO_v2_4dev21validateChannelParamsIXadL_ZNS_19validateGreaterThanEPKcddEEEEvS2_RKNS_9CDLOpData13ChannelParamsEd(ptr noundef @.str.11, ptr noundef nonnull align 8 dereferenceable(24) %1, double noundef 0.000000e+00)
  %2 = load double, ptr %saturation.addr, align 8
  call void @_ZN19OpenColorIO_v2_4dev20validateGreaterEqualEPKcdd(ptr noundef @.str.12, double noundef %2, double noundef 0.000000e+00)
  ret void
}

; Function Attrs: mustprogress uwtable
define hidden void @_ZNK19OpenColorIO_v2_4dev9CDLOpData8validateEv(ptr noundef nonnull align 8 dereferenceable(256) %this) unnamed_addr #4 align 2 {
entry:
  %this.addr = alloca ptr, align 8
  store ptr %this, ptr %this.addr, align 8
  %this1 = load ptr, ptr %this.addr, align 8
  %m_slopeParams = getelementptr inbounds %"class.OpenColorIO_v2_4dev::CDLOpData", ptr %this1, i32 0, i32 2
  %m_powerParams = getelementptr inbounds %"class.OpenColorIO_v2_4dev::CDLOpData", ptr %this1, i32 0, i32 4
  %m_saturation = getelementptr inbounds %"class.OpenColorIO_v2_4dev::CDLOpData", ptr %this1, i32 0, i32 5
  %0 = load double, ptr %m_saturation, align 8
  call void @_ZN19OpenColorIO_v2_4dev14validateParamsERKNS_9CDLOpData13ChannelParamsES3_d(ptr noundef nonnull align 8 dereferenceable(24) %m_slopeParams, ptr noundef nonnull align 8 dereferenceable(24) %m_powerParams, double noundef %0)
  ret void
}