; Function Attrs: mustprogress uwtable
define hidden void @_ZNK19OpenColorIO_v2_4dev9CDLOpData8validateEv(ptr nocapture noundef nonnull readonly align 8 dereferenceable(256) %this) unnamed_addr #3 align 2 personality ptr @__gxx_personality_v0 {
entry:
  %m_slopeParams = getelementptr inbounds i8, ptr %this, i64 176
  %m_saturation = getelementptr inbounds i8, ptr %this, i64 248
  %0 = load double, ptr %m_saturation, align 8
  br label %_ZNK19OpenColorIO_v2_4dev9CDLOpData13ChannelParamsixEj.exit.i.i

_ZNK19OpenColorIO_v2_4dev9CDLOpData13ChannelParamsixEj.exit.i.i: ; preds = %_ZNK19OpenColorIO_v2_4dev9CDLOpData13ChannelParamsixEj.exit.i.i, %entry
  %indvars.iv.i.i = phi i64 [ 0, %entry ], [ %indvars.iv.next.i.i, %_ZNK19OpenColorIO_v2_4dev9CDLOpData13ChannelParamsixEj.exit.i.i ]
  %arrayidx.i.i.i = getelementptr inbounds [3 x double], ptr %m_slopeParams, i64 0, i64 %indvars.iv.i.i
  %1 = load double, ptr %arrayidx.i.i.i, align 8
  tail call void @_ZN19OpenColorIO_v2_4dev20validateGreaterEqualEPKcdd(ptr noundef nonnull @.str.10, double noundef %1, double noundef 0.000000e+00)
  %indvars.iv.next.i.i = add nuw nsw i64 %indvars.iv.i.i, 1
  %exitcond.not.i.i = icmp eq i64 %indvars.iv.next.i.i, 3
  br i1 %exitcond.not.i.i, label %_ZNK19OpenColorIO_v2_4dev9CDLOpData13ChannelParamsixEj.exit.i1.i.preheader, label %_ZNK19OpenColorIO_v2_4dev9CDLOpData13ChannelParamsixEj.exit.i.i, !llvm.loop !4

_ZNK19OpenColorIO_v2_4dev9CDLOpData13ChannelParamsixEj.exit.i1.i.preheader: ; preds = %_ZNK19OpenColorIO_v2_4dev9CDLOpData13ChannelParamsixEj.exit.i.i
  %m_powerParams = getelementptr inbounds i8, ptr %this, i64 224
  br label %_ZNK19OpenColorIO_v2_4dev9CDLOpData13ChannelParamsixEj.exit.i1.i

_ZNK19OpenColorIO_v2_4dev9CDLOpData13ChannelParamsixEj.exit.i1.i: ; preds = %_ZNK19OpenColorIO_v2_4dev9CDLOpData13ChannelParamsixEj.exit.i1.i.preheader, %_ZNK19OpenColorIO_v2_4dev9CDLOpData13ChannelParamsixEj.exit.i1.i
  %indvars.iv.i2.i = phi i64 [ %indvars.iv.next.i4.i, %_ZNK19OpenColorIO_v2_4dev9CDLOpData13ChannelParamsixEj.exit.i1.i ], [ 0, %_ZNK19OpenColorIO_v2_4dev9CDLOpData13ChannelParamsixEj.exit.i1.i.preheader ]
  %arrayidx.i.i3.i = getelementptr inbounds [3 x double], ptr %m_powerParams, i64 0, i64 %indvars.iv.i2.i
  %2 = load double, ptr %arrayidx.i.i3.i, align 8
  tail call void @_ZN19OpenColorIO_v2_4dev19validateGreaterThanEPKcdd(ptr noundef nonnull @.str.11, double noundef %2, double noundef 0.000000e+00)
  %indvars.iv.next.i4.i = add nuw nsw i64 %indvars.iv.i2.i, 1
  %exitcond.not.i5.i = icmp eq i64 %indvars.iv.next.i4.i, 3
  br i1 %exitcond.not.i5.i, label %_ZN19OpenColorIO_v2_4dev14validateParamsERKNS_9CDLOpData13ChannelParamsES3_d.exit, label %_ZNK19OpenColorIO_v2_4dev9CDLOpData13ChannelParamsixEj.exit.i1.i, !llvm.loop !6

_ZN19OpenColorIO_v2_4dev14validateParamsERKNS_9CDLOpData13ChannelParamsES3_d.exit: ; preds = %_ZNK19OpenColorIO_v2_4dev9CDLOpData13ChannelParamsixEj.exit.i1.i
  tail call void @_ZN19OpenColorIO_v2_4dev20validateGreaterEqualEPKcdd(ptr noundef nonnull @.str.12, double noundef %0, double noundef 0.000000e+00)
  ret void
}